target datalayout = "e-m:e-p270:32:32-p271:32:32-p272:64:64-i64:64-i128:128-f80:128-n8:16:32:64-S128"
target triple = "x86_64-pc-linux-gnu"

%struct.SDL_Mouse = type { ptr, ptr, ptr, ptr, ptr, ptr, ptr, ptr, ptr, ptr, ptr, ptr, ptr, ptr, i8, float, float, ptr, float, float, float, float, float, float, float, float, double, double, i8, i8, i8, i8, i8, i8, i8, i8, i64, i8, float, i8, float, i8, i32, i32, i8, i8, i8, i8, i8, i8, i8, i8, i8, ptr, i32, ptr, ptr, ptr, ptr, i8, ptr }
%union.SDL_Event = type { %struct.SDL_MouseWheelEvent, [72 x i8] }
%struct.SDL_MouseWheelEvent = type { i32, i32, i64, i32, i32, float, float, i32, float, float, i32, i32 }
%struct.SDL_MouseInstance = type { i32, ptr }
%struct.SDL_MouseDeviceEvent = type { i32, i32, i64, i32 }
%struct.SDL_MouseInputSource = type { i32, i32, i32, ptr }

@SDL_mice = internal global ptr null, align 8
@SDL_mouse_count = internal global i32 0, align 4
@SDL_mouse = internal global %struct.SDL_Mouse zeroinitializer, align 8

; Function Attrs: nounwind uwtable
define hidden ptr @SDL_GetMouse() #0 {
  ret ptr @SDL_mouse
}

; Function Attrs: nounwind uwtable
define internal i32 @SDL_GetMouseIndex(i32 noundef %0) #0 {
  %2 = alloca i32, align 4
  %3 = alloca i32, align 4
  %4 = alloca i32, align 4
  %5 = alloca i32, align 4
  store i32 %0, ptr %3, align 4
  call void @llvm.lifetime.start.p0(i64 4, ptr %4) #7
  store i32 0, ptr %4, align 4
  br label %6

6:                                                ; preds = %23, %1
  %7 = load i32, ptr %4, align 4
  %8 = load i32, ptr @SDL_mouse_count, align 4
  %9 = icmp slt i32 %7, %8
  br i1 %9, label %11, label %10

10:                                               ; preds = %6
  store i32 2, ptr %5, align 4
  br label %26

11:                                               ; preds = %6
  %12 = load i32, ptr %3, align 4
  %13 = load ptr, ptr @SDL_mice, align 8
  %14 = load i32, ptr %4, align 4
  %15 = sext i32 %14 to i64
  %16 = getelementptr inbounds %struct.SDL_MouseInstance, ptr %13, i64 %15
  %17 = getelementptr inbounds nuw %struct.SDL_MouseInstance, ptr %16, i32 0, i32 0
  %18 = load i32, ptr %17, align 8
  %19 = icmp eq i32 %12, %18
  br i1 %19, label %20, label %22

20:                                               ; preds = %11
  %21 = load i32, ptr %4, align 4
  store i32 %21, ptr %2, align 4
  store i32 1, ptr %5, align 4
  br label %26

22:                                               ; preds = %11
  br label %23

23:                                               ; preds = %22
  %24 = load i32, ptr %4, align 4
  %25 = add nsw i32 %24, 1
  store i32 %25, ptr %4, align 4
  br label %6, !llvm.loop !7

26:                                               ; preds = %20, %10
  call void @llvm.lifetime.end.p0(i64 4, ptr %4) #7
  %27 = load i32, ptr %5, align 4
  switch i32 %27, label %31 [
    i32 2, label %28
    i32 1, label %29
  ]

28:                                               ; preds = %26
  store i32 -1, ptr %2, align 4
  br label %29

29:                                               ; preds = %28, %26
  %30 = load i32, ptr %2, align 4
  ret i32 %30

31:                                               ; preds = %26
  unreachable
}

; Function Attrs: nounwind uwtable
define hidden void @SDL_RemoveMouse(i32 noundef %0, i1 noundef zeroext %1) #0 {
  %3 = alloca i32, align 4
  %4 = alloca i8, align 1
  %5 = alloca i32, align 4
  %6 = alloca i32, align 4
  %7 = alloca ptr, align 8
  %8 = alloca i32, align 4
  %9 = alloca ptr, align 8
  %10 = alloca %union.SDL_Event, align 8
  store i32 %0, ptr %3, align 4
  %11 = zext i1 %1 to i8
  store i8 %11, ptr %4, align 1
  call void @llvm.lifetime.start.p0(i64 4, ptr %5) #7
  %12 = load i32, ptr %3, align 4
  %13 = call i32 @SDL_GetMouseIndex(i32 noundef %12)
  store i32 %13, ptr %5, align 4
  %14 = load i32, ptr %5, align 4
  %15 = icmp slt i32 %14, 0
  br i1 %15, label %16, label %17

16:                                               ; preds = %2
  store i32 1, ptr %6, align 4
  br label %120

17:                                               ; preds = %2
  %18 = load ptr, ptr @SDL_mice, align 8
  %19 = load i32, ptr %5, align 4
  %20 = sext i32 %19 to i64
  %21 = getelementptr inbounds %struct.SDL_MouseInstance, ptr %18, i64 %20
  %22 = getelementptr inbounds nuw %struct.SDL_MouseInstance, ptr %21, i32 0, i32 1
  %23 = load ptr, ptr %22, align 8
  call void @SDL_free_REAL(ptr noundef %23)
  %24 = load i32, ptr %5, align 4
  %25 = load i32, ptr @SDL_mouse_count, align 4
  %26 = sub nsw i32 %25, 1
  %27 = icmp ne i32 %24, %26
  br i1 %27, label %28, label %44

28:                                               ; preds = %17
  %29 = load ptr, ptr @SDL_mice, align 8
  %30 = load i32, ptr %5, align 4
  %31 = sext i32 %30 to i64
  %32 = getelementptr inbounds %struct.SDL_MouseInstance, ptr %29, i64 %31
  %33 = load ptr, ptr @SDL_mice, align 8
  %34 = load i32, ptr %5, align 4
  %35 = add nsw i32 %34, 1
  %36 = sext i32 %35 to i64
  %37 = getelementptr inbounds %struct.SDL_MouseInstance, ptr %33, i64 %36
  %38 = load i32, ptr @SDL_mouse_count, align 4
  %39 = load i32, ptr %5, align 4
  %40 = sub nsw i32 %38, %39
  %41 = sub nsw i32 %40, 1
  %42 = sext i32 %41 to i64
  %43 = mul i64 %42, 16
  call void @llvm.memmove.p0.p0.i64(ptr align 8 %32, ptr align 8 %37, i64 %43, i1 false)
  br label %44

44:                                               ; preds = %28, %17
  %45 = load i32, ptr @SDL_mouse_count, align 4
  %46 = add nsw i32 %45, -1
  store i32 %46, ptr @SDL_mouse_count, align 4
  call void @llvm.lifetime.start.p0(i64 8, ptr %7) #7
  %47 = call ptr @SDL_GetMouse()
  store ptr %47, ptr %7, align 8
  call void @llvm.lifetime.start.p0(i64 4, ptr %8) #7
  store i32 0, ptr %8, align 4
  br label %48

48:                                               ; preds = %108, %44
  %49 = load i32, ptr %8, align 4
  %50 = load ptr, ptr %7, align 8
  %51 = getelementptr inbounds nuw %struct.SDL_Mouse, ptr %50, i32 0, i32 54
  %52 = load i32, ptr %51, align 8
  %53 = icmp slt i32 %49, %52
  br i1 %53, label %55, label %54

54:                                               ; preds = %48
  store i32 2, ptr %6, align 4
  br label %111

55:                                               ; preds = %48
  call void @llvm.lifetime.start.p0(i64 8, ptr %9) #7
  %56 = load ptr, ptr %7, align 8
  %57 = getelementptr inbounds nuw %struct.SDL_Mouse, ptr %56, i32 0, i32 55
  %58 = load ptr, ptr %57, align 8
  %59 = load i32, ptr %8, align 4
  %60 = sext i32 %59 to i64
  %61 = getelementptr inbounds %struct.SDL_MouseInputSource, ptr %58, i64 %60
  store ptr %61, ptr %9, align 8
  %62 = load ptr, ptr %9, align 8
  %63 = getelementptr inbounds nuw %struct.SDL_MouseInputSource, ptr %62, i32 0, i32 0
  %64 = load i32, ptr %63, align 8
  %65 = load i32, ptr %3, align 4
  %66 = icmp eq i32 %64, %65
  br i1 %66, label %67, label %104

67:                                               ; preds = %55
  %68 = load ptr, ptr %9, align 8
  %69 = getelementptr inbounds nuw %struct.SDL_MouseInputSource, ptr %68, i32 0, i32 3
  %70 = load ptr, ptr %69, align 8
  call void @SDL_free_REAL(ptr noundef %70)
  %71 = load i32, ptr %8, align 4
  %72 = load ptr, ptr %7, align 8
  %73 = getelementptr inbounds nuw %struct.SDL_Mouse, ptr %72, i32 0, i32 54
  %74 = load i32, ptr %73, align 8
  %75 = sub nsw i32 %74, 1
  %76 = icmp ne i32 %71, %75
  br i1 %76, label %77, label %99

77:                                               ; preds = %67
  %78 = load ptr, ptr %7, align 8
  %79 = getelementptr inbounds nuw %struct.SDL_Mouse, ptr %78, i32 0, i32 55
  %80 = load ptr, ptr %79, align 8
  %81 = load i32, ptr %8, align 4
  %82 = sext i32 %81 to i64
  %83 = getelementptr inbounds %struct.SDL_MouseInputSource, ptr %80, i64 %82
  %84 = load ptr, ptr %7, align 8
  %85 = getelementptr inbounds nuw %struct.SDL_Mouse, ptr %84, i32 0, i32 55
  %86 = load ptr, ptr %85, align 8
  %87 = load i32, ptr %8, align 4
  %88 = add nsw i32 %87, 1
  %89 = sext i32 %88 to i64
  %90 = getelementptr inbounds %struct.SDL_MouseInputSource, ptr %86, i64 %89
  %91 = load ptr, ptr %7, align 8
  %92 = getelementptr inbounds nuw %struct.SDL_Mouse, ptr %91, i32 0, i32 54
  %93 = load i32, ptr %92, align 8
  %94 = load i32, ptr %8, align 4
  %95 = sub nsw i32 %93, %94
  %96 = sub nsw i32 %95, 1
  %97 = sext i32 %96 to i64
  %98 = mul i64 %97, 24
  call void @llvm.memmove.p0.p0.i64(ptr align 8 %83, ptr align 8 %90, i64 %98, i1 false)
  br label %99

99:                                               ; preds = %77, %67
  %100 = load ptr, ptr %7, align 8
  %101 = getelementptr inbounds nuw %struct.SDL_Mouse, ptr %100, i32 0, i32 54
  %102 = load i32, ptr %101, align 8
  %103 = add nsw i32 %102, -1
  store i32 %103, ptr %101, align 8
  store i32 2, ptr %6, align 4
  br label %105

104:                                              ; preds = %55
  store i32 0, ptr %6, align 4
  br label %105

105:                                              ; preds = %104, %99
  call void @llvm.lifetime.end.p0(i64 8, ptr %9) #7
  %106 = load i32, ptr %6, align 4
  switch i32 %106, label %111 [
    i32 0, label %107
  ]

107:                                              ; preds = %105
  br label %108

108:                                              ; preds = %107
  %109 = load i32, ptr %8, align 4
  %110 = add nsw i32 %109, 1
  store i32 %110, ptr %8, align 4
  br label %48, !llvm.loop !8

111:                                              ; preds = %105, %54
  call void @llvm.lifetime.end.p0(i64 4, ptr %8) #7
  br label %112

112:                                              ; preds = %111
  %113 = load i8, ptr %4, align 1, !range !3, !noundef !4
  %114 = trunc i8 %113 to i1
  br i1 %114, label %115, label %119

115:                                              ; preds = %112
  call void @llvm.lifetime.start.p0(i64 128, ptr %10) #7
  call void @llvm.memset.p0.i64(ptr align 8 %10, i8 0, i64 128, i1 false)
  store i32 1029, ptr %10, align 8
  %116 = load i32, ptr %3, align 4
  %117 = getelementptr inbounds nuw %struct.SDL_MouseDeviceEvent, ptr %10, i32 0, i32 3
  store i32 %116, ptr %117, align 8
  %118 = call zeroext i1 @SDL_PushEvent_REAL(ptr noundef %10)
  call void @llvm.lifetime.end.p0(i64 128, ptr %10) #7
  br label %119

119:                                              ; preds = %115, %112
  call void @llvm.lifetime.end.p0(i64 8, ptr %7) #7
  store i32 0, ptr %6, align 4
  br label %120

120:                                              ; preds = %119, %16
  call void @llvm.lifetime.end.p0(i64 4, ptr %5) #7
  %121 = load i32, ptr %6, align 4
  switch i32 %121, label %123 [
    i32 0, label %122
    i32 1, label %122
  ]

122:                                              ; preds = %120, %120
  ret void

123:                                              ; preds = %120
  unreachable
}