; Function Attrs: nounwind uwtable
define hidden void @SDL_RemoveMouse(i32 noundef %0, i1 noundef zeroext %1) local_unnamed_addr #0 {
  %3 = alloca %union.SDL_Event, align 8
  %4 = load i32, ptr @SDL_mouse_count, align 4
  %.not9.i = icmp sgt i32 %4, 0
  br i1 %.not9.i, label %.lr.ph.i, label %SDL_GetMouseIndex.exit.thread

.lr.ph.i:                                         ; preds = %2
  %5 = load ptr, ptr @SDL_mice, align 8
  %wide.trip.count.i = zext nneg i32 %4 to i64
  br label %6

6:                                                ; preds = %10, %.lr.ph.i
  %indvars.iv.i = phi i64 [ 0, %.lr.ph.i ], [ %indvars.iv.next.i, %10 ]
  %7 = getelementptr inbounds nuw %struct.SDL_MouseInstance, ptr %5, i64 %indvars.iv.i
  %8 = load i32, ptr %7, align 8
  %9 = icmp eq i32 %0, %8
  br i1 %9, label %SDL_GetMouseIndex.exit, label %10

10:                                               ; preds = %6
  %indvars.iv.next.i = add nuw nsw i64 %indvars.iv.i, 1
  %exitcond.not.i = icmp eq i64 %indvars.iv.next.i, %wide.trip.count.i
  br i1 %exitcond.not.i, label %SDL_GetMouseIndex.exit.thread, label %6, !llvm.loop !7

SDL_GetMouseIndex.exit:                           ; preds = %6
  %11 = trunc nuw nsw i64 %indvars.iv.i to i32
  %12 = and i64 %indvars.iv.i, 4294967295
  %13 = getelementptr inbounds nuw %struct.SDL_MouseInstance, ptr %5, i64 %12, i32 1
  %14 = load ptr, ptr %13, align 8
  tail call void @SDL_free_REAL(ptr noundef %14) #13
  %15 = load i32, ptr @SDL_mouse_count, align 4
  %16 = add nsw i32 %15, -1
  %.not = icmp eq i32 %16, %11
  br i1 %.not, label %25, label %17

17:                                               ; preds = %SDL_GetMouseIndex.exit
  %18 = load ptr, ptr @SDL_mice, align 8
  %19 = getelementptr inbounds nuw %struct.SDL_MouseInstance, ptr %18, i64 %12
  %20 = getelementptr inbounds nuw i8, ptr %19, i64 16
  %21 = xor i32 %11, -1
  %22 = add i32 %15, %21
  %23 = sext i32 %22 to i64
  %24 = shl nsw i64 %23, 4
  tail call void @llvm.memmove.p0.p0.i64(ptr align 8 %19, ptr nonnull align 8 %20, i64 %24, i1 false)
  br label %25

25:                                               ; preds = %17, %SDL_GetMouseIndex.exit
  store i32 %16, ptr @SDL_mouse_count, align 4
  %26 = load i32, ptr getelementptr inbounds nuw (i8, ptr @SDL_mouse, i64 248), align 8
  %27 = icmp sgt i32 %26, 0
  br i1 %27, label %.lr.ph, label %.loopexit

.lr.ph:                                           ; preds = %25
  %28 = load ptr, ptr getelementptr inbounds nuw (i8, ptr @SDL_mouse, i64 256), align 8
  %wide.trip.count = zext nneg i32 %26 to i64
  br label %29

29:                                               ; preds = %.lr.ph, %.critedge
  %indvars.iv = phi i64 [ 0, %.lr.ph ], [ %indvars.iv.next, %.critedge ]
  %30 = getelementptr inbounds nuw %struct.SDL_MouseInputSource, ptr %28, i64 %indvars.iv
  %31 = load i32, ptr %30, align 8
  %.not29 = icmp eq i32 %31, %0
  br i1 %.not29, label %32, label %.critedge

32:                                               ; preds = %29
  %33 = trunc nuw nsw i64 %indvars.iv to i32
  %34 = getelementptr inbounds nuw i8, ptr %30, i64 16
  %35 = load ptr, ptr %34, align 8
  tail call void @SDL_free_REAL(ptr noundef %35) #13
  %36 = load i32, ptr getelementptr inbounds nuw (i8, ptr @SDL_mouse, i64 248), align 8
  %37 = add nsw i32 %36, -1
  %.not28 = icmp eq i32 %37, %33
  br i1 %.not28, label %46, label %38

38:                                               ; preds = %32
  %39 = load ptr, ptr getelementptr inbounds nuw (i8, ptr @SDL_mouse, i64 256), align 8
  %40 = getelementptr inbounds nuw %struct.SDL_MouseInputSource, ptr %39, i64 %indvars.iv
  %41 = getelementptr inbounds nuw i8, ptr %40, i64 24
  %42 = xor i32 %33, -1
  %43 = add i32 %36, %42
  %44 = sext i32 %43 to i64
  %45 = mul nsw i64 %44, 24
  tail call void @llvm.memmove.p0.p0.i64(ptr align 8 %40, ptr nonnull align 8 %41, i64 %45, i1 false)
  %.pre = load i32, ptr getelementptr inbounds nuw (i8, ptr @SDL_mouse, i64 248), align 8
  %.pre41 = add nsw i32 %.pre, -1
  br label %46

46:                                               ; preds = %38, %32
  %.pre-phi = phi i32 [ %.pre41, %38 ], [ %37, %32 ]
  store i32 %.pre-phi, ptr getelementptr inbounds nuw (i8, ptr @SDL_mouse, i64 248), align 8
  br label %.loopexit

.critedge:                                        ; preds = %29
  %indvars.iv.next = add nuw nsw i64 %indvars.iv, 1
  %exitcond.not = icmp eq i64 %indvars.iv.next, %wide.trip.count
  br i1 %exitcond.not, label %.loopexit, label %29, !llvm.loop !8

.loopexit:                                        ; preds = %.critedge, %25, %46
  br i1 %1, label %47, label %SDL_GetMouseIndex.exit.thread

47:                                               ; preds = %.loopexit
  call void @llvm.lifetime.start.p0(i64 128, ptr nonnull %3) #13
  call void @llvm.memset.p0.i64(ptr noundef nonnull align 8 dereferenceable(128) %3, i8 0, i64 128, i1 false)
  store i32 1029, ptr %3, align 8
  %48 = getelementptr inbounds nuw i8, ptr %3, i64 16
  store i32 %0, ptr %48, align 8
  %49 = call zeroext i1 @SDL_PushEvent_REAL(ptr noundef nonnull %3) #13
  call void @llvm.lifetime.end.p0(i64 128, ptr nonnull %3) #13
  br label %SDL_GetMouseIndex.exit.thread

SDL_GetMouseIndex.exit.thread:                    ; preds = %10, %2, %.loopexit, %47
  ret void
}